target datalayout = "e-m:e-p270:32:32-p271:32:32-p272:64:64-i64:64-i128:128-f80:128-n8:16:32:64-S128"
target triple = "x86_64-pc-linux-gnu"

@.str.3 = private unnamed_addr constant [5 x i8] c"Quit\00", align 1
@.str.4 = private unnamed_addr constant [5 x i8] c"Open\00", align 1
@.str.5 = private unnamed_addr constant [5 x i8] c"(&s)\00", align 1
@.str.6 = private unnamed_addr constant [4 x i8] c"(i)\00", align 1

; Function Attrs: nounwind uwtable
define internal void @_handle_method_call(ptr noundef %0, ptr noundef %1, ptr noundef %2, ptr noundef %3, ptr noundef %4, ptr noundef %5, ptr noundef %6, ptr noundef %7) #0 {
  %9 = alloca ptr, align 8
  %10 = alloca ptr, align 8
  %11 = alloca ptr, align 8
  %12 = alloca ptr, align 8
  %13 = alloca ptr, align 8
  %14 = alloca ptr, align 8
  %15 = alloca ptr, align 8
  %16 = alloca ptr, align 8
  %17 = alloca ptr, align 8
  %18 = alloca i32, align 4
  store ptr %0, ptr %9, align 8, !tbaa !18
  store ptr %1, ptr %10, align 8, !tbaa !19
  store ptr %2, ptr %11, align 8, !tbaa !19
  store ptr %3, ptr %12, align 8, !tbaa !19
  store ptr %4, ptr %13, align 8, !tbaa !19
  store ptr %5, ptr %14, align 8, !tbaa !31
  store ptr %6, ptr %15, align 8, !tbaa !33
  store ptr %7, ptr %16, align 8, !tbaa !21
  %19 = load ptr, ptr %13, align 8, !tbaa !19
  %20 = call i32 @g_strcmp0(ptr noundef %19, ptr noundef @.str.3)
  %21 = icmp ne i32 %20, 0
  br i1 %21, label %24, label %22

22:                                               ; preds = %8
  %23 = load ptr, ptr %15, align 8, !tbaa !33
  call void @g_dbus_method_invocation_return_value(ptr noundef %23, ptr noundef null)
  call void (...) @dt_control_quit()
  br label %36

24:                                               ; preds = %8
  %25 = load ptr, ptr %13, align 8, !tbaa !19
  %26 = call i32 @g_strcmp0(ptr noundef %25, ptr noundef @.str.4)
  %27 = icmp ne i32 %26, 0
  br i1 %27, label %35, label %28

28:                                               ; preds = %24
  call void @llvm.lifetime.start.p0(i64 8, ptr %17) #5
  %29 = load ptr, ptr %14, align 8, !tbaa !31
  call void (ptr, ptr, ...) @g_variant_get(ptr noundef %29, ptr noundef @.str.5, ptr noundef %17)
  call void @llvm.lifetime.start.p0(i64 4, ptr %18) #5
  %30 = load ptr, ptr %17, align 8, !tbaa !19
  %31 = call i32 @dt_load_from_string(ptr noundef %30, i32 noundef 1, ptr noundef null)
  store i32 %31, ptr %18, align 4, !tbaa !35
  %32 = load ptr, ptr %15, align 8, !tbaa !33
  %33 = load i32, ptr %18, align 4, !tbaa !35
  %34 = call ptr (ptr, ...) @g_variant_new(ptr noundef @.str.6, i32 noundef %33)
  call void @g_dbus_method_invocation_return_value(ptr noundef %32, ptr noundef %34)
  call void @llvm.lifetime.end.p0(i64 4, ptr %18) #5
  call void @llvm.lifetime.end.p0(i64 8, ptr %17) #5
  br label %35

35:                                               ; preds = %28, %24
  br label %36

36:                                               ; preds = %35, %22
  ret void
}