; Function Attrs: nounwind uwtable
define internal void @_handle_method_call(ptr readnone captures(none) %0, ptr readnone captures(none) %1, ptr readnone captures(none) %2, ptr readnone captures(none) %3, ptr noundef %4, ptr noundef %5, ptr noundef %6, ptr readnone captures(none) %7) #0 {
  %9 = alloca ptr, align 8
  %10 = tail call i32 @g_strcmp0(ptr noundef %4, ptr noundef nonnull @.str.3) #8
  %.not = icmp eq i32 %10, 0
  br i1 %.not, label %11, label %12

11:                                               ; preds = %8
  tail call void @g_dbus_method_invocation_return_value(ptr noundef %6, ptr noundef null) #8
  tail call void (...) @dt_control_quit() #8
  br label %18

12:                                               ; preds = %8
  %13 = tail call i32 @g_strcmp0(ptr noundef %4, ptr noundef nonnull @.str.4) #8
  %.not5 = icmp eq i32 %13, 0
  br i1 %.not5, label %14, label %18

14:                                               ; preds = %12
  call void @llvm.lifetime.start.p0(i64 8, ptr nonnull %9) #8
  call void (ptr, ptr, ...) @g_variant_get(ptr noundef %5, ptr noundef nonnull @.str.5, ptr noundef nonnull %9) #8
  %15 = load ptr, ptr %9, align 8, !tbaa !26
  %16 = call i32 @dt_load_from_string(ptr noundef %15, i32 noundef 1, ptr noundef null) #8
  %17 = call ptr (ptr, ...) @g_variant_new(ptr noundef nonnull @.str.6, i32 noundef %16) #8
  call void @g_dbus_method_invocation_return_value(ptr noundef %6, ptr noundef %17) #8
  call void @llvm.lifetime.end.p0(i64 8, ptr nonnull %9) #8
  br label %18

18:                                               ; preds = %12, %14, %11
  ret void
}